; Function Attrs: mustprogress nofree norecurse nosync nounwind willreturn memory(read, inaccessiblemem: none) uwtable
define dso_local { <2 x float>, <2 x float> } @_ZNK23btConvexPointCloudShape37localGetSupportingVertexWithoutMarginERK9btVector3(ptr noundef nonnull readonly align 8 captures(none) dereferenceable(132) %0, ptr noundef nonnull readonly align 4 captures(none) dereferenceable(16) %1) unnamed_addr #3 align 2 {
  %.sroa.0.0.copyload12 = load float, ptr %1, align 4
  %.sroa.8.0..sroa_idx = getelementptr inbounds nuw i8, ptr %1, i64 4
  %.sroa.8.0.copyload = load float, ptr %.sroa.8.0..sroa_idx, align 4
  %.sroa.13.0..sroa_idx = getelementptr inbounds nuw i8, ptr %1, i64 8
  %.sroa.13.0.copyload = load float, ptr %.sroa.13.0..sroa_idx, align 4
  %3 = fmul float %.sroa.8.0.copyload, %.sroa.8.0.copyload
  %4 = tail call float @llvm.fmuladd.f32(float %.sroa.0.0.copyload12, float %.sroa.0.0.copyload12, float %3)
  %5 = tail call noundef float @llvm.fmuladd.f32(float %.sroa.13.0.copyload, float %.sroa.13.0.copyload, float %4)
  %6 = fcmp olt float %5, 0x3F1A36E2E0000000
  br i1 %6, label %12, label %7

7:                                                ; preds = %2
  %sqrt = tail call float @llvm.sqrt.f32(float %5)
  %8 = fdiv float 1.000000e+00, %sqrt
  %9 = fmul float %.sroa.0.0.copyload12, %8
  %10 = fmul float %.sroa.8.0.copyload, %8
  %11 = fmul float %.sroa.13.0.copyload, %8
  br label %12

12:                                               ; preds = %2, %7
  %.sroa.13.0 = phi float [ %11, %7 ], [ 0.000000e+00, %2 ]
  %.sroa.8.0 = phi float [ %10, %7 ], [ 0.000000e+00, %2 ]
  %.sroa.0.0 = phi float [ %9, %7 ], [ 1.000000e+00, %2 ]
  %13 = getelementptr inbounds nuw i8, ptr %0, i64 128
  %14 = load i32, ptr %13, align 8, !tbaa !8
  %15 = icmp sgt i32 %14, 0
  br i1 %15, label %.lr.ph.i, label %47

.lr.ph.i:                                         ; preds = %12
  %16 = getelementptr inbounds nuw i8, ptr %0, i64 120
  %17 = load ptr, ptr %16, align 8, !tbaa !22
  %18 = zext nneg i32 %14 to i64
  br label %19

19:                                               ; preds = %19, %.lr.ph.i
  %indvars.iv.i = phi i64 [ 0, %.lr.ph.i ], [ %indvars.iv.next.i, %19 ]
  %.019.i = phi float [ 0xC7EFFFFFE0000000, %.lr.ph.i ], [ %.1.i, %19 ]
  %.01218.i = phi i32 [ -1, %.lr.ph.i ], [ %.113.i, %19 ]
  %20 = getelementptr inbounds nuw %class.btVector3, ptr %17, i64 %indvars.iv.i
  %21 = load float, ptr %20, align 4, !tbaa !23
  %22 = getelementptr inbounds nuw i8, ptr %20, i64 4
  %23 = load float, ptr %22, align 4, !tbaa !23
  %24 = fmul float %.sroa.8.0, %23
  %25 = tail call float @llvm.fmuladd.f32(float %21, float %.sroa.0.0, float %24)
  %26 = getelementptr inbounds nuw i8, ptr %20, i64 8
  %27 = load float, ptr %26, align 4, !tbaa !23
  %28 = tail call noundef float @llvm.fmuladd.f32(float %27, float %.sroa.13.0, float %25)
  %29 = fcmp ogt float %28, %.019.i
  %30 = trunc nuw nsw i64 %indvars.iv.i to i32
  %.113.i = select i1 %29, i32 %30, i32 %.01218.i
  %.1.i = select i1 %29, float %28, float %.019.i
  %indvars.iv.next.i = add nuw nsw i64 %indvars.iv.i, 1
  %exitcond.not.i = icmp eq i64 %indvars.iv.next.i, %18
  br i1 %exitcond.not.i, label %_ZNK9btVector36maxDotEPKS_lRf.exit, label %19, !llvm.loop !24

_ZNK9btVector36maxDotEPKS_lRf.exit:               ; preds = %19
  %31 = sext i32 %.113.i to i64
  %32 = getelementptr inbounds %class.btVector3, ptr %17, i64 %31
  %33 = getelementptr inbounds nuw i8, ptr %0, i64 32
  %34 = load float, ptr %32, align 4, !tbaa !23
  %35 = load float, ptr %33, align 8, !tbaa !23
  %36 = fmul float %34, %35
  %37 = getelementptr inbounds nuw i8, ptr %32, i64 4
  %38 = load float, ptr %37, align 4, !tbaa !23
  %39 = getelementptr inbounds nuw i8, ptr %0, i64 36
  %40 = load float, ptr %39, align 4, !tbaa !23
  %41 = fmul float %38, %40
  %42 = getelementptr inbounds nuw i8, ptr %32, i64 8
  %43 = load float, ptr %42, align 4, !tbaa !23
  %44 = getelementptr inbounds nuw i8, ptr %0, i64 40
  %45 = load float, ptr %44, align 8, !tbaa !23
  %46 = fmul float %43, %45
  %.sroa.0.0.vec.insert.i.i = insertelement <2 x float> poison, float %36, i64 0
  %.sroa.0.4.vec.insert.i.i = insertelement <2 x float> %.sroa.0.0.vec.insert.i.i, float %41, i64 1
  %.sroa.3.12.vec.insert.i.i = insertelement <2 x float> <float poison, float 0.000000e+00>, float %46, i64 0
  %.fca.0.insert.i.i = insertvalue { <2 x float>, <2 x float> } poison, <2 x float> %.sroa.0.4.vec.insert.i.i, 0
  %.fca.1.insert.i.i = insertvalue { <2 x float>, <2 x float> } %.fca.0.insert.i.i, <2 x float> %.sroa.3.12.vec.insert.i.i, 1
  br label %47

47:                                               ; preds = %12, %_ZNK9btVector36maxDotEPKS_lRf.exit
  %.fca.1.insert.merged = phi { <2 x float>, <2 x float> } [ %.fca.1.insert.i.i, %_ZNK9btVector36maxDotEPKS_lRf.exit ], [ zeroinitializer, %12 ]
  ret { <2 x float>, <2 x float> } %.fca.1.insert.merged
}